target datalayout = "e-m:e-p270:32:32-p271:32:32-p272:64:64-i64:64-i128:128-f80:128-n8:16:32:64-S128"
target triple = "x86_64-pc-linux-gnu"

%struct.zstream = type { i64, i64, i64, i64, %struct.z_stream_s, ptr }
%struct.z_stream_s = type { ptr, i32, i64, ptr, i32, i64, ptr, ptr, ptr, ptr, ptr, i32, i64, i64 }
%struct.RString = type { %struct.RBasic, i64, %union.anon }
%struct.RBasic = type { i64, i64 }
%union.anon = type { %struct.anon }
%struct.anon = type { ptr, %union.anon.0 }
%union.anon.0 = type { i64 }
%struct.anon.1 = type { [1 x i8] }
%struct.zstream_run_args = type { ptr, ptr, i64, i32, i32, i32, i32 }

@.str.154 = private unnamed_addr constant [1 x i8] zeroinitializer, align 1

; Function Attrs: inlinehint nounwind sspstrong willreturn memory(read) uwtable
define internal i64 @RB_FL_TEST_RAW(i64 noundef %0, i64 noundef %1) #6 {
  %3 = alloca i64, align 8
  %4 = alloca i64, align 8
  store i64 %0, ptr %3, align 8, !tbaa !6
  store i64 %1, ptr %4, align 8, !tbaa !6
  %5 = load i64, ptr %3, align 8, !tbaa !6
  %6 = inttoptr i64 %5 to ptr
  %7 = getelementptr inbounds nuw %struct.RBasic, ptr %6, i32 0, i32 0
  %8 = load i64, ptr %7, align 8, !tbaa !91
  %9 = load i64, ptr %4, align 8, !tbaa !6
  %10 = and i64 %8, %9
  ret i64 %10
}

; Function Attrs: inlinehint nounwind sspstrong willreturn memory(read) uwtable
define internal zeroext i1 @RB_FL_ANY_RAW(i64 noundef %0, i64 noundef %1) #6 {
  %3 = alloca i64, align 8
  %4 = alloca i64, align 8
  store i64 %0, ptr %3, align 8, !tbaa !6
  store i64 %1, ptr %4, align 8, !tbaa !6
  %5 = load i64, ptr %3, align 8, !tbaa !6
  %6 = load i64, ptr %4, align 8, !tbaa !6
  %7 = call i64 @RB_FL_TEST_RAW(i64 noundef %5, i64 noundef %6) #25
  %8 = icmp ne i64 %7, 0
  ret i1 %8
}

; Function Attrs: inlinehint nounwind sspstrong willreturn memory(read, argmem: readwrite) uwtable
define internal void @rbimpl_rstring_getmem(ptr dead_on_unwind noalias writable sret(%struct.RString) align 8 %0, i64 noundef %1) #9 {
  %3 = alloca i64, align 8
  store i64 %1, ptr %3, align 8, !tbaa !6
  %4 = load i64, ptr %3, align 8, !tbaa !6
  %5 = call zeroext i1 @RB_FL_ANY_RAW(i64 noundef %4, i64 noundef 8192) #25
  br i1 %5, label %6, label %9

6:                                                ; preds = %2
  %7 = load i64, ptr %3, align 8, !tbaa !6
  %8 = inttoptr i64 %7 to ptr
  call void @llvm.memcpy.p0.p0.i64(ptr align 8 %0, ptr align 8 %8, i64 40, i1 false), !tbaa.struct !92
  br label %20

9:                                                ; preds = %2
  %10 = load i64, ptr %3, align 8, !tbaa !6
  %11 = call i64 @RSTRING_LEN(i64 noundef %10) #25
  %12 = getelementptr inbounds nuw %struct.RString, ptr %0, i32 0, i32 1
  store i64 %11, ptr %12, align 8, !tbaa !88
  %13 = load i64, ptr %3, align 8, !tbaa !6
  %14 = inttoptr i64 %13 to ptr
  %15 = getelementptr inbounds nuw %struct.RString, ptr %14, i32 0, i32 2
  %16 = getelementptr inbounds nuw %struct.anon.1, ptr %15, i32 0, i32 0
  %17 = getelementptr inbounds [1 x i8], ptr %16, i64 0, i64 0
  %18 = getelementptr inbounds nuw %struct.RString, ptr %0, i32 0, i32 2
  %19 = getelementptr inbounds nuw %struct.anon, ptr %18, i32 0, i32 0
  store ptr %17, ptr %19, align 8, !tbaa !68
  br label %20

20:                                               ; preds = %9, %6
  ret void
}

; Function Attrs: nounwind sspstrong uwtable
define internal void @zstream_run(ptr noundef %0, ptr noundef %1, i64 noundef %2, i32 noundef %3) #0 {
  %5 = alloca ptr, align 8
  %6 = alloca ptr, align 8
  %7 = alloca i64, align 8
  %8 = alloca i32, align 4
  %9 = alloca %struct.zstream_run_args, align 8
  store ptr %0, ptr %5, align 8, !tbaa !21
  store ptr %1, ptr %6, align 8, !tbaa !19
  store i64 %2, ptr %7, align 8, !tbaa !6
  store i32 %3, ptr %8, align 4, !tbaa !10
  call void @llvm.lifetime.start.p0(i64 40, ptr %9) #23
  %10 = getelementptr inbounds nuw %struct.zstream_run_args, ptr %9, i32 0, i32 0
  %11 = load ptr, ptr %5, align 8, !tbaa !21
  store ptr %11, ptr %10, align 8, !tbaa !99
  %12 = getelementptr inbounds nuw %struct.zstream_run_args, ptr %9, i32 0, i32 1
  %13 = load ptr, ptr %6, align 8, !tbaa !19
  store ptr %13, ptr %12, align 8, !tbaa !101
  %14 = getelementptr inbounds nuw %struct.zstream_run_args, ptr %9, i32 0, i32 2
  %15 = load i64, ptr %7, align 8, !tbaa !6
  store i64 %15, ptr %14, align 8, !tbaa !102
  %16 = getelementptr inbounds nuw %struct.zstream_run_args, ptr %9, i32 0, i32 3
  %17 = load i32, ptr %8, align 4, !tbaa !10
  store i32 %17, ptr %16, align 8, !tbaa !103
  %18 = getelementptr inbounds nuw %struct.zstream_run_args, ptr %9, i32 0, i32 4
  store i32 0, ptr %18, align 4, !tbaa !104
  %19 = getelementptr inbounds nuw %struct.zstream_run_args, ptr %9, i32 0, i32 5
  store i32 0, ptr %19, align 8, !tbaa !105
  %20 = getelementptr inbounds nuw %struct.zstream_run_args, ptr %9, i32 0, i32 6
  %21 = load ptr, ptr %5, align 8, !tbaa !21
  %22 = getelementptr inbounds nuw %struct.zstream, ptr %21, i32 0, i32 0
  %23 = load i64, ptr %22, align 8, !tbaa !33
  %24 = and i64 %23, 16
  %25 = icmp ne i64 %24, 0
  br i1 %25, label %29, label %26

26:                                               ; preds = %4
  %27 = call i32 @rb_block_given_p()
  %28 = icmp ne i32 %27, 0
  br label %29

29:                                               ; preds = %26, %4
  %30 = phi i1 [ false, %4 ], [ %28, %26 ]
  %31 = zext i1 %30 to i32
  store i32 %31, ptr %20, align 4, !tbaa !106
  %32 = ptrtoint ptr %9 to i64
  %33 = ptrtoint ptr %9 to i64
  %34 = call i64 @rb_ensure(ptr noundef @zstream_run_try, i64 noundef %32, ptr noundef @zstream_run_ensure, i64 noundef %33)
  %35 = getelementptr inbounds nuw %struct.zstream_run_args, ptr %9, i32 0, i32 5
  %36 = load i32, ptr %35, align 8, !tbaa !105
  %37 = icmp ne i32 %36, 0
  br i1 %37, label %38, label %41

38:                                               ; preds = %29
  %39 = getelementptr inbounds nuw %struct.zstream_run_args, ptr %9, i32 0, i32 5
  %40 = load i32, ptr %39, align 8, !tbaa !105
  call void @rb_jump_tag(i32 noundef %40) #26
  unreachable

41:                                               ; preds = %29
  call void @llvm.lifetime.end.p0(i64 40, ptr %9) #23
  ret void
}

; Function Attrs: inlinehint nounwind sspstrong willreturn memory(read) uwtable
define internal i64 @RSTRING_LEN(i64 noundef %0) #6 {
  %2 = alloca i64, align 8
  store i64 %0, ptr %2, align 8, !tbaa !6
  %3 = load i64, ptr %2, align 8, !tbaa !6
  %4 = inttoptr i64 %3 to ptr
  %5 = getelementptr inbounds nuw %struct.RString, ptr %4, i32 0, i32 1
  %6 = load i64, ptr %5, align 8, !tbaa !88
  ret i64 %6
}

; Function Attrs: inlinehint nounwind sspstrong uwtable
define internal ptr @RSTRING_PTR(i64 noundef %0) #3 {
  %2 = alloca i64, align 8
  %3 = alloca ptr, align 8
  %4 = alloca %struct.RString, align 8
  store i64 %0, ptr %2, align 8, !tbaa !6
  call void @llvm.lifetime.start.p0(i64 8, ptr %3) #23
  %5 = load i64, ptr %2, align 8, !tbaa !6
  call void @rbimpl_rstring_getmem(ptr dead_on_unwind writable sret(%struct.RString) align 8 %4, i64 noundef %5) #28
  %6 = getelementptr inbounds nuw %struct.RString, ptr %4, i32 0, i32 2
  %7 = getelementptr inbounds nuw %struct.anon, ptr %6, i32 0, i32 0
  %8 = load ptr, ptr %7, align 8, !tbaa !68
  store ptr %8, ptr %3, align 8, !tbaa !19
  %9 = load ptr, ptr %3, align 8, !tbaa !19
  call void @llvm.lifetime.end.p0(i64 8, ptr %3) #23
  ret ptr %9
}

; Function Attrs: nounwind sspstrong uwtable
define internal i64 @inflate_run(i64 noundef %0) #0 {
  %2 = alloca i64, align 8
  %3 = alloca ptr, align 8
  %4 = alloca i64, align 8
  store i64 %0, ptr %2, align 8, !tbaa !6
  call void @llvm.lifetime.start.p0(i64 8, ptr %3) #23
  %5 = load i64, ptr %2, align 8, !tbaa !6
  %6 = inttoptr i64 %5 to ptr
  %7 = getelementptr inbounds i64, ptr %6, i64 0
  %8 = load i64, ptr %7, align 8, !tbaa !6
  %9 = inttoptr i64 %8 to ptr
  store ptr %9, ptr %3, align 8, !tbaa !21
  call void @llvm.lifetime.start.p0(i64 8, ptr %4) #23
  %10 = load i64, ptr %2, align 8, !tbaa !6
  %11 = inttoptr i64 %10 to ptr
  %12 = getelementptr inbounds i64, ptr %11, i64 1
  %13 = load i64, ptr %12, align 8, !tbaa !6
  store i64 %13, ptr %4, align 8, !tbaa !6
  %14 = load ptr, ptr %3, align 8, !tbaa !21
  %15 = load i64, ptr %4, align 8, !tbaa !6
  %16 = call ptr @RSTRING_PTR(i64 noundef %15)
  %17 = load i64, ptr %4, align 8, !tbaa !6
  %18 = call i64 @RSTRING_LEN(i64 noundef %17) #25
  call void @zstream_run(ptr noundef %14, ptr noundef %16, i64 noundef %18, i32 noundef 2)
  %19 = load ptr, ptr %3, align 8, !tbaa !21
  call void @zstream_run(ptr noundef %19, ptr noundef @.str.154, i64 noundef 0, i32 noundef 4)
  %20 = load ptr, ptr %3, align 8, !tbaa !21
  %21 = call i64 @zstream_detach_buffer(ptr noundef %20)
  call void @llvm.lifetime.end.p0(i64 8, ptr %4) #23
  call void @llvm.lifetime.end.p0(i64 8, ptr %3) #23
  ret i64 %21
}