; Function Attrs: nounwind sspstrong uwtable
define internal i64 @inflate_run(i64 noundef %0) #0 {
  %2 = alloca %struct.zstream_run_args, align 8
  %3 = alloca %struct.zstream_run_args, align 8
  %4 = inttoptr i64 %0 to ptr
  %5 = load i64, ptr %4, align 8, !tbaa !6
  %6 = inttoptr i64 %5 to ptr
  %7 = getelementptr inbounds nuw i8, ptr %4, i64 8
  %8 = load i64, ptr %7, align 8, !tbaa !6
  %9 = inttoptr i64 %8 to ptr
  %10 = load i64, ptr %9, align 8, !tbaa !16, !noalias !230
  %11 = and i64 %10, 8192
  %.not.i.i = icmp eq i64 %11, 0
  %12 = getelementptr inbounds nuw i8, ptr %9, i64 24
  br i1 %.not.i.i, label %RSTRING_PTR.exit, label %13

13:                                               ; preds = %1
  %.sroa.2.0.copyload.i = load ptr, ptr %12, align 8
  br label %RSTRING_PTR.exit

RSTRING_PTR.exit:                                 ; preds = %1, %13
  %.sroa.2.0.i = phi ptr [ %.sroa.2.0.copyload.i, %13 ], [ %12, %1 ]
  %14 = getelementptr inbounds nuw i8, ptr %9, i64 16
  %15 = load i64, ptr %14, align 8, !tbaa !21
  call void @llvm.lifetime.start.p0(i64 40, ptr nonnull %3) #18
  store ptr %6, ptr %3, align 8, !tbaa !61
  %16 = getelementptr inbounds nuw i8, ptr %3, i64 8
  store ptr %.sroa.2.0.i, ptr %16, align 8, !tbaa !64
  %17 = getelementptr inbounds nuw i8, ptr %3, i64 16
  store i64 %15, ptr %17, align 8, !tbaa !65
  %18 = getelementptr inbounds nuw i8, ptr %3, i64 24
  store i32 2, ptr %18, align 8, !tbaa !66
  %19 = getelementptr inbounds nuw i8, ptr %3, i64 28
  store i32 0, ptr %19, align 4, !tbaa !67
  %20 = getelementptr inbounds nuw i8, ptr %3, i64 32
  store i32 0, ptr %20, align 8, !tbaa !68
  %21 = getelementptr inbounds nuw i8, ptr %3, i64 36
  %22 = load i64, ptr %6, align 8, !tbaa !42
  %23 = and i64 %22, 16
  %.not.i = icmp eq i64 %23, 0
  br i1 %.not.i, label %24, label %28

24:                                               ; preds = %RSTRING_PTR.exit
  %25 = tail call i32 @rb_block_given_p() #18
  %26 = icmp ne i32 %25, 0
  %27 = zext i1 %26 to i32
  br label %28

28:                                               ; preds = %24, %RSTRING_PTR.exit
  %29 = phi i32 [ 0, %RSTRING_PTR.exit ], [ %27, %24 ]
  store i32 %29, ptr %21, align 4, !tbaa !69
  %30 = ptrtoint ptr %3 to i64
  %31 = call i64 @rb_ensure(ptr noundef nonnull @zstream_run_try, i64 noundef %30, ptr noundef nonnull @zstream_run_ensure, i64 noundef %30) #18
  %32 = load i32, ptr %20, align 8, !tbaa !68
  %.not4.i = icmp eq i32 %32, 0
  br i1 %.not4.i, label %zstream_run.exit, label %33

33:                                               ; preds = %28
  call void @rb_jump_tag(i32 noundef %32) #19
  unreachable

zstream_run.exit:                                 ; preds = %28
  call void @llvm.lifetime.end.p0(i64 40, ptr nonnull %3) #18
  call void @llvm.lifetime.start.p0(i64 40, ptr nonnull %2) #18
  store ptr %6, ptr %2, align 8, !tbaa !61
  %34 = getelementptr inbounds nuw i8, ptr %2, i64 8
  store ptr @.str.154, ptr %34, align 8, !tbaa !64
  %35 = getelementptr inbounds nuw i8, ptr %2, i64 16
  store i64 0, ptr %35, align 8, !tbaa !65
  %36 = getelementptr inbounds nuw i8, ptr %2, i64 24
  store i32 4, ptr %36, align 8, !tbaa !66
  %37 = getelementptr inbounds nuw i8, ptr %2, i64 28
  store i32 0, ptr %37, align 4, !tbaa !67
  %38 = getelementptr inbounds nuw i8, ptr %2, i64 32
  store i32 0, ptr %38, align 8, !tbaa !68
  %39 = getelementptr inbounds nuw i8, ptr %2, i64 36
  %40 = load i64, ptr %6, align 8, !tbaa !42
  %41 = and i64 %40, 16
  %.not.i6 = icmp eq i64 %41, 0
  br i1 %.not.i6, label %42, label %46

42:                                               ; preds = %zstream_run.exit
  %43 = call i32 @rb_block_given_p() #18
  %44 = icmp ne i32 %43, 0
  %45 = zext i1 %44 to i32
  br label %46

46:                                               ; preds = %42, %zstream_run.exit
  %47 = phi i32 [ 0, %zstream_run.exit ], [ %45, %42 ]
  store i32 %47, ptr %39, align 4, !tbaa !69
  %48 = ptrtoint ptr %2 to i64
  %49 = call i64 @rb_ensure(ptr noundef nonnull @zstream_run_try, i64 noundef %48, ptr noundef nonnull @zstream_run_ensure, i64 noundef %48) #18
  %50 = load i32, ptr %38, align 8, !tbaa !68
  %.not4.i7 = icmp eq i32 %50, 0
  br i1 %.not4.i7, label %zstream_run.exit8, label %51

51:                                               ; preds = %46
  call void @rb_jump_tag(i32 noundef %50) #19
  unreachable

zstream_run.exit8:                                ; preds = %46
  call void @llvm.lifetime.end.p0(i64 40, ptr nonnull %2) #18
  %52 = call fastcc i64 @zstream_detach_buffer(ptr noundef nonnull %6)
  ret i64 %52
}